; Function Attrs: nounwind uwtable
define internal fastcc void @PrintFinalStats(ptr noundef %0) unnamed_addr #0 {
  %2 = alloca i64, align 8
  %3 = alloca i64, align 8
  %4 = alloca i64, align 8
  %5 = alloca i64, align 8
  %6 = alloca i64, align 8
  %7 = alloca i64, align 8
  %8 = alloca i64, align 8
  %9 = alloca i64, align 8
  call void @llvm.lifetime.start.p0(i64 8, ptr nonnull %2) #12
  call void @llvm.lifetime.start.p0(i64 8, ptr nonnull %3) #12
  call void @llvm.lifetime.start.p0(i64 8, ptr nonnull %4) #12
  call void @llvm.lifetime.start.p0(i64 8, ptr nonnull %5) #12
  call void @llvm.lifetime.start.p0(i64 8, ptr nonnull %6) #12
  call void @llvm.lifetime.start.p0(i64 8, ptr nonnull %7) #12
  call void @llvm.lifetime.start.p0(i64 8, ptr nonnull %8) #12
  call void @llvm.lifetime.start.p0(i64 8, ptr nonnull %9) #12
  %10 = call i32 @IDAGetNumSteps(ptr noundef %0, ptr noundef nonnull %2) #12
  %11 = call i32 @IDAGetNumResEvals(ptr noundef %0, ptr noundef nonnull %6) #12
  %12 = call i32 @IDAGetNumJacEvals(ptr noundef %0, ptr noundef nonnull %5) #12
  %13 = call i32 @IDAGetNumNonlinSolvIters(ptr noundef %0, ptr noundef nonnull %3) #12
  %14 = call i32 @IDAGetNumErrTestFails(ptr noundef %0, ptr noundef nonnull %8) #12
  %15 = call i32 @IDAGetNumNonlinSolvConvFails(ptr noundef %0, ptr noundef nonnull %4) #12
  %16 = call i32 @IDAGetNumStepSolveFails(ptr noundef %0, ptr noundef nonnull %9) #12
  %17 = call i32 @IDAGetNumLinResEvals(ptr noundef %0, ptr noundef nonnull %7) #12
  %puts = call i32 @puts(ptr nonnull dereferenceable(1) @str.5)
  %18 = load i64, ptr %2, align 8, !tbaa !31
  %19 = call i32 (ptr, ...) @printf(ptr noundef nonnull dereferenceable(1) @.str.12, i64 noundef %18)
  %20 = load i64, ptr %6, align 8, !tbaa !31
  %21 = load i64, ptr %7, align 8, !tbaa !31
  %22 = add nsw i64 %21, %20
  %23 = call i32 (ptr, ...) @printf(ptr noundef nonnull dereferenceable(1) @.str.13, i64 noundef %22)
  %24 = load i64, ptr %5, align 8, !tbaa !31
  %25 = call i32 (ptr, ...) @printf(ptr noundef nonnull dereferenceable(1) @.str.14, i64 noundef %24)
  %26 = load i64, ptr %3, align 8, !tbaa !31
  %27 = call i32 (ptr, ...) @printf(ptr noundef nonnull dereferenceable(1) @.str.15, i64 noundef %26)
  %28 = load i64, ptr %8, align 8, !tbaa !31
  %29 = call i32 (ptr, ...) @printf(ptr noundef nonnull dereferenceable(1) @.str.16, i64 noundef %28)
  %30 = load i64, ptr %4, align 8, !tbaa !31
  %31 = call i32 (ptr, ...) @printf(ptr noundef nonnull dereferenceable(1) @.str.17, i64 noundef %30)
  %32 = load i64, ptr %9, align 8, !tbaa !31
  %33 = call i32 (ptr, ...) @printf(ptr noundef nonnull dereferenceable(1) @.str.18, i64 noundef %32)
  call void @llvm.lifetime.end.p0(i64 8, ptr nonnull %9) #12
  call void @llvm.lifetime.end.p0(i64 8, ptr nonnull %8) #12
  call void @llvm.lifetime.end.p0(i64 8, ptr nonnull %7) #12
  call void @llvm.lifetime.end.p0(i64 8, ptr nonnull %6) #12
  call void @llvm.lifetime.end.p0(i64 8, ptr nonnull %5) #12
  call void @llvm.lifetime.end.p0(i64 8, ptr nonnull %4) #12
  call void @llvm.lifetime.end.p0(i64 8, ptr nonnull %3) #12
  call void @llvm.lifetime.end.p0(i64 8, ptr nonnull %2) #12
  ret void
}